(dp0
S'DeepNetInput'
p1
(dp2
I2
(dp3
S'Acc'
p4
F1.0
sS'Loss'
p5
cnumpy.core.multiarray
scalar
p6
(cnumpy
dtype
p7
(S'f8'
p8
I0
I1
tp9
Rp10
(I3
S'<'
p11
NNNI-1
I-1
I0
tp12
bS'\xb4\x9a\x84\xbc}\x19\xb8?'
p13
tp14
Rp15
sS'Weight_Decay'
p16
F1.019448458705821e-05
sS'Batch'
p17
I90
sS'Learning'
p18
g6
(g10
S'd\x99\x85\xe9\x16+\r?'
p19
tp20
Rp21
ssI3
(dp22
S'Acc'
p23
F1.0
sS'Loss'
p24
g6
(g10
S'!q\xb2\xdaH\xa9\xb0?'
p25
tp26
Rp27
sS'Weight_Decay'
p28
F1.0006988397122027e-05
sS'Batch'
p29
I114
sS'Learning'
p30
g6
(g10
S'\xc7\xf6h"t4,?'
p31
tp32
Rp33
ssI20
(dp34
S'Acc'
p35
F1.0
sS'Loss'
p36
g6
(g10
S'\x9e\xea\x9e\x07x\xa0\xa0?'
p37
tp38
Rp39
sS'Weight_Decay'
p40
F1.1751977132841403e-05
sS'Batch'
p41
I226
sS'Learning'
p42
g6
(g10
S'\xf9\xa8\xe7\xc2\xe2\x84\x10?'
p43
tp44
Rp45
ssI5
(dp46
S'Acc'
p47
F1.0
sS'Loss'
p48
g6
(g10
S'\t\x90?\xcd\xb7\xd9\xa5?'
p49
tp50
Rp51
sS'Weight_Decay'
p52
F1.3112549892481453e-05
sS'Batch'
p53
I114
sS'Learning'
p54
g6
(g10
S'\xed\xab\x8aL\xf2<\x1c?'
p55
tp56
Rp57
ssI25
(dp58
S'Acc'
p59
F1.0
sS'Loss'
p60
g6
(g10
S'\x90\x9f\x19\xc6\xc6$\x9b?'
p61
tp62
Rp63
sS'Weight_Decay'
p64
F1.1648209939633141e-05
sS'Batch'
p65
I91
sS'Learning'
p66
g6
(g10
S'x\xa3\x8d6\x8b)\x1b?'
p67
tp68
Rp69
ssI10
(dp70
S'Acc'
p71
F1.0
sS'Loss'
p72
g6
(g10
S'\xdf\x1a6\xfb\x03\x04\x9d?'
p73
tp74
Rp75
sS'Weight_Decay'
p76
F1.152077878538938e-05
sS'Batch'
p77
I142
sS'Learning'
p78
g6
(g10
S'H<4\xc4\x92\xc1&?'
p79
tp80
Rp81
ssI15
(dp82
S'Acc'
p83
F1.0
sS'Loss'
p84
g6
(g10
S'\xa9\x03\x12\xc0\x93@\x9a?'
p85
tp86
Rp87
sS'Weight_Decay'
p88
F1.1274322758116509e-05
sS'Batch'
p89
I55
sS'Learning'
p90
g6
(g10
S'i\xecy\x8eoP\x15?'
p91
tp92
Rp93
sssS'Recurrent'
p94
(dp95
I2
(dp96
S'Acc'
p97
F1.0
sS'Loss'
p98
g6
(g10
S',\xdc\xb8lY\x84\xb9?'
p99
tp100
Rp101
sS'Weight_Decay'
p102
F1.0481173604920976e-05
sS'Batch'
p103
I203
sS'Learning'
p104
g6
(g10
S'\xbe\xb4\xc74\xdd\xeb3?'
p105
tp106
Rp107
ssI3
(dp108
S'Acc'
p109
F1.0
sS'Loss'
p110
g6
(g10
S'.\xc8\xb8p\xce:\xb7?'
p111
tp112
Rp113
sS'Weight_Decay'
p114
F1.5061506462607569e-05
sS'Batch'
p115
I188
sS'Learning'
p116
g6
(g10
S'`\xc3\xe5\xb4\x15\x98A?'
p117
tp118
Rp119
ssI20
(dp120
S'Acc'
p121
F1.0
sS'Loss'
p122
g6
(g10
S'\xf2\xcbV\xcc\x0c\x97\xb2?'
p123
tp124
Rp125
sS'Weight_Decay'
p126
F1.761545563488291e-05
sS'Batch'
p127
I49
sS'Learning'
p128
g6
(g10
S"\xce8kGv\x15'?"
p129
tp130
Rp131
ssI5
(dp132
S'Acc'
p133
F1.0
sS'Loss'
p134
g6
(g10
S'\xf7M\xe11t\n\xb6?'
p135
tp136
Rp137
sS'Weight_Decay'
p138
F1.441625489643088e-05
sS'Batch'
p139
I240
sS'Learning'
p140
g6
(g10
S'\x95\xc4J\xe9+MF?'
p141
tp142
Rp143
ssI25
(dp144
S'Acc'
p145
F1.0
sS'Loss'
p146
g6
(g10
S'\xd9\xfc&\xa8\x9f\x93\xb6?'
p147
tp148
Rp149
sS'Weight_Decay'
p150
F1.6199306168489167e-05
sS'Batch'
p151
I112
sS'Learning'
p152
g6
(g10
S'\x06\xa87\x98\x1doA?'
p153
tp154
Rp155
ssI10
(dp156
S'Acc'
p157
F1.0
sS'Loss'
p158
g6
(g10
S'\x99\x92)\xe9\xa9\xe0\xb2?'
p159
tp160
Rp161
sS'Weight_Decay'
p162
F1.2276496371436918e-05
sS'Batch'
p163
I171
sS'Learning'
p164
g6
(g10
S'\xe1\xc97#OF&?'
p165
tp166
Rp167
ssI15
(dp168
S'Acc'
p169
F1.0
sS'Loss'
p170
g6
(g10
S'[\xe8\xe1s\xb5{\xb2?'
p171
tp172
Rp173
sS'Weight_Decay'
p174
F1.011744114892087e-05
sS'Batch'
p175
I84
sS'Learning'
p176
g6
(g10
S'9\x92B\x8e\x8e\xe7!?'
p177
tp178
Rp179
sssS'DeepNet'
p180
(dp181
I2
(dp182
S'Acc'
p183
F1.0
sS'Loss'
p184
g6
(g10
S'kC&f\xee\x0f\xbb?'
p185
tp186
Rp187
sS'Weight_Decay'
p188
F1.1222305285496691e-05
sS'Batch'
p189
I178
sS'Learning'
p190
g6
(g10
S')\xa1u\x9ex@=?'
p191
tp192
Rp193
ssI3
(dp194
S'Acc'
p195
F1.0
sS'Loss'
p196
g6
(g10
S'\x88\x8a\x84 \xa8\x94\xb6?'
p197
tp198
Rp199
sS'Weight_Decay'
p200
F1.077092206902913e-05
sS'Batch'
p201
I39
sS'Learning'
p202
g6
(g10
S'\xae\x85\xb0\x93;E*?'
p203
tp204
Rp205
ssI20
(dp206
S'Acc'
p207
F1.0
sS'Loss'
p208
g6
(g10
S'\x1e\x1e\x1e>\n\xf0\xdb?'
p209
tp210
Rp211
sS'Weight_Decay'
p212
F1.3237676745750327e-05
sS'Batch'
p213
I151
sS'Learning'
p214
g6
(g10
S'\xcf\xdb\x1bI~\x7f\xfb>'
p215
tp216
Rp217
ssI5
(dp218
S'Acc'
p219
F1.0
sS'Loss'
p220
g6
(g10
S'\x85\xf4{A\r\x10\xb2?'
p221
tp222
Rp223
sS'Weight_Decay'
p224
F1.5993058154087632e-05
sS'Batch'
p225
I102
sS'Learning'
p226
g6
(g10
S'\x0f\xb8Opm\x99(?'
p227
tp228
Rp229
ssI25
(dp230
S'Acc'
p231
F1.0
sS'Loss'
p232
g6
(g10
S'\xaf\x10\x1f\xd2\xdf\xe4\xdd?'
p233
tp234
Rp235
sS'Weight_Decay'
p236
F1.2966365872956478e-05
sS'Batch'
p237
I225
sS'Learning'
p238
g6
(g10
S'o0[\x01\xd2\xc2\x08?'
p239
tp240
Rp241
ssI10
(dp242
S'Acc'
p243
F1.0
sS'Loss'
p244
g6
(g10
S'z`1\xcf9\x9a\xb3?'
p245
tp246
Rp247
sS'Weight_Decay'
p248
F1.1095093615825293e-05
sS'Batch'
p249
I99
sS'Learning'
p250
g6
(g10
S'\xada\x99\xc9\x0f\xe2"?'
p251
tp252
Rp253
ssI15
(dp254
S'Acc'
p255
F1.0
sS'Loss'
p256
g6
(g10
S'\x83V_*\xa0\xe2\xd6?'
p257
tp258
Rp259
sS'Weight_Decay'
p260
F1.4429285796434226e-05
sS'Batch'
p261
I115
sS'Learning'
p262
g6
(g10
S'\xc6E\x03-\x80\x0e\x13?'
p263
tp264
Rp265
sss.